; ModuleID = '31/1633.c'
source_filename = "31/1633.c"
target datalayout = "e-m:e-p270:32:32-p271:32:32-p272:64:64-i64:64-f80:128-n8:16:32:64-S128"
target triple = "x86_64-pc-linux-gnu"

%struct.student = type { [500 x i8], %struct.student*, %struct.student* }

@.str = private unnamed_addr constant [4 x i8] c"end\00", align 1
@.str.1 = private unnamed_addr constant [4 x i8] c"%s\0A\00", align 1
@.str.2 = private unnamed_addr constant [3 x i8] c"%s\00", align 1

; Function Attrs: noinline nounwind uwtable
define dso_local %struct.student* @creat() #0 {
  %1 = alloca %struct.student*, align 8
  %2 = alloca %struct.student*, align 8
  %3 = alloca %struct.student*, align 8
  %4 = call noalias i8* @malloc(i64 100) #4
  %5 = bitcast i8* %4 to %struct.student*
  store %struct.student* %5, %struct.student** %3, align 8
  store %struct.student* %5, %struct.student** %2, align 8
  %6 = load %struct.student*, %struct.student** %2, align 8
  %7 = getelementptr inbounds %struct.student, %struct.student* %6, i32 0, i32 0
  %8 = getelementptr inbounds [500 x i8], [500 x i8]* %7, i64 0, i64 0
  %9 = call i32 (i8*, ...) bitcast (i32 (...)* @gets to i32 (i8*, ...)*)(i8* %8)
  %10 = load %struct.student*, %struct.student** %2, align 8
  %11 = getelementptr inbounds %struct.student, %struct.student* %10, i32 0, i32 2
  store %struct.student* null, %struct.student** %11, align 8
  %12 = load %struct.student*, %struct.student** %2, align 8
  store %struct.student* %12, %struct.student** %1, align 8
  br label %13

13:                                               ; preds = %19, %0
  %14 = load %struct.student*, %struct.student** %2, align 8
  %15 = getelementptr inbounds %struct.student, %struct.student* %14, i32 0, i32 0
  %16 = getelementptr inbounds [500 x i8], [500 x i8]* %15, i64 0, i64 0
  %17 = call i32 @strcmp(i8* %16, i8* getelementptr inbounds ([4 x i8], [4 x i8]* @.str, i64 0, i64 0)) #5
  %18 = icmp ne i32 %17, 0
  br i1 %18, label %19, label %33

19:                                               ; preds = %13
  %20 = load %struct.student*, %struct.student** %2, align 8
  store %struct.student* %20, %struct.student** %3, align 8
  %21 = call noalias i8* @malloc(i64 100) #4
  %22 = bitcast i8* %21 to %struct.student*
  store %struct.student* %22, %struct.student** %2, align 8
  %23 = load %struct.student*, %struct.student** %2, align 8
  %24 = getelementptr inbounds %struct.student, %struct.student* %23, i32 0, i32 0
  %25 = getelementptr inbounds [500 x i8], [500 x i8]* %24, i64 0, i64 0
  %26 = call i32 (i8*, ...) bitcast (i32 (...)* @gets to i32 (i8*, ...)*)(i8* %25)
  %27 = load %struct.student*, %struct.student** %2, align 8
  %28 = load %struct.student*, %struct.student** %3, align 8
  %29 = getelementptr inbounds %struct.student, %struct.student* %28, i32 0, i32 1
  store %struct.student* %27, %struct.student** %29, align 8
  %30 = load %struct.student*, %struct.student** %3, align 8
  %31 = load %struct.student*, %struct.student** %2, align 8
  %32 = getelementptr inbounds %struct.student, %struct.student* %31, i32 0, i32 2
  store %struct.student* %30, %struct.student** %32, align 8
  br label %13

33:                                               ; preds = %13
  %34 = load %struct.student*, %struct.student** %3, align 8
  %35 = getelementptr inbounds %struct.student, %struct.student* %34, i32 0, i32 1
  store %struct.student* null, %struct.student** %35, align 8
  %36 = load %struct.student*, %struct.student** %3, align 8
  store %struct.student* %36, %struct.student** %1, align 8
  %37 = load %struct.student*, %struct.student** %1, align 8
  ret %struct.student* %37
}

; Function Attrs: nounwind
declare dso_local noalias i8* @malloc(i64) #1

declare dso_local i32 @gets(...) #2

; Function Attrs: nounwind readonly
declare dso_local i32 @strcmp(i8*, i8*) #3

; Function Attrs: noinline nounwind uwtable
define dso_local void @main() #0 {
  %1 = alloca %struct.student*, align 8
  %2 = alloca %struct.student*, align 8
  %3 = call %struct.student* @creat()
  store %struct.student* %3, %struct.student** %2, align 8
  %4 = load %struct.student*, %struct.student** %2, align 8
  store %struct.student* %4, %struct.student** %1, align 8
  br label %5

5:                                                ; preds = %10, %0
  %6 = load %struct.student*, %struct.student** %1, align 8
  %7 = getelementptr inbounds %struct.student, %struct.student* %6, i32 0, i32 2
  %8 = load %struct.student*, %struct.student** %7, align 8
  %9 = icmp ne %struct.student* %8, null
  br i1 %9, label %10, label %18

10:                                               ; preds = %5
  %11 = load %struct.student*, %struct.student** %1, align 8
  %12 = getelementptr inbounds %struct.student, %struct.student* %11, i32 0, i32 0
  %13 = getelementptr inbounds [500 x i8], [500 x i8]* %12, i64 0, i64 0
  %14 = call i32 (i8*, ...) @printf(i8* getelementptr inbounds ([4 x i8], [4 x i8]* @.str.1, i64 0, i64 0), i8* %13)
  %15 = load %struct.student*, %struct.student** %1, align 8
  %16 = getelementptr inbounds %struct.student, %struct.student* %15, i32 0, i32 2
  %17 = load %struct.student*, %struct.student** %16, align 8
  store %struct.student* %17, %struct.student** %1, align 8
  br label %5

18:                                               ; preds = %5
  %19 = load %struct.student*, %struct.student** %1, align 8
  %20 = getelementptr inbounds %struct.student, %struct.student* %19, i32 0, i32 0
  %21 = getelementptr inbounds [500 x i8], [500 x i8]* %20, i64 0, i64 0
  %22 = call i32 (i8*, ...) @printf(i8* getelementptr inbounds ([3 x i8], [3 x i8]* @.str.2, i64 0, i64 0), i8* %21)
  ret void
}

declare dso_local i32 @printf(i8*, ...) #2


!llvm.module.flags = !{!0}
!llvm.ident = !{!1}

!0 = !{i32 1, !"wchar_size", i32 4}
!1 = !{!"clang version 10.0.0-4ubuntu1 "}
